target datalayout = "e-m:e-p270:32:32-p271:32:32-p272:64:64-i64:64-i128:128-f80:128-n8:16:32:64-S128"
target triple = "x86_64-pc-linux-gnu"

%struct.luaL_Buffer = type { ptr, i64, i64, ptr, %union.anon }
%union.anon = type { double, [1016 x i8] }

@.str.8 = private unnamed_addr constant [1 x i8] zeroinitializer, align 1
@.str.12 = private unnamed_addr constant [53 x i8] c"invalid value (%s) at index %I in table for 'concat'\00", align 1

; Function Attrs: nounwind uwtable
define internal void @addfield(ptr noundef %0, ptr noundef %1, i64 noundef %2) #0 {
  %4 = alloca ptr, align 8
  %5 = alloca ptr, align 8
  %6 = alloca i64, align 8
  store ptr %0, ptr %4, align 8, !tbaa !4
  store ptr %1, ptr %5, align 8, !tbaa !17
  store i64 %2, ptr %6, align 8, !tbaa !9
  %7 = load ptr, ptr %4, align 8, !tbaa !4
  %8 = load i64, ptr %6, align 8, !tbaa !9
  %9 = call i32 @lua_geti(ptr noundef %7, i32 noundef 1, i64 noundef %8)
  %10 = load ptr, ptr %4, align 8, !tbaa !4
  %11 = call i32 @lua_isstring(ptr noundef %10, i32 noundef -1)
  %12 = icmp ne i32 %11, 0
  %13 = xor i1 %12, true
  %14 = zext i1 %13 to i32
  %15 = icmp ne i32 %14, 0
  %16 = zext i1 %15 to i32
  %17 = sext i32 %16 to i64
  %18 = call i64 @llvm.expect.i64(i64 %17, i64 0)
  %19 = icmp ne i64 %18, 0
  br i1 %19, label %20, label %28

20:                                               ; preds = %3
  %21 = load ptr, ptr %4, align 8, !tbaa !4
  %22 = load ptr, ptr %4, align 8, !tbaa !4
  %23 = load ptr, ptr %4, align 8, !tbaa !4
  %24 = call i32 @lua_type(ptr noundef %23, i32 noundef -1)
  %25 = call ptr @lua_typename(ptr noundef %22, i32 noundef %24)
  %26 = load i64, ptr %6, align 8, !tbaa !9
  %27 = call i32 (ptr, ptr, ...) @luaL_error(ptr noundef %21, ptr noundef @.str.12, ptr noundef %25, i64 noundef %26)
  br label %28

28:                                               ; preds = %20, %3
  %29 = load ptr, ptr %5, align 8, !tbaa !17
  call void @luaL_addvalue(ptr noundef %29)
  ret void
}

; Function Attrs: nounwind uwtable
define internal i32 @tconcat(ptr noundef %0) #0 {
  %2 = alloca ptr, align 8
  %3 = alloca %struct.luaL_Buffer, align 8
  %4 = alloca i64, align 8
  %5 = alloca i64, align 8
  %6 = alloca ptr, align 8
  %7 = alloca i64, align 8
  store ptr %0, ptr %2, align 8, !tbaa !4
  call void @llvm.lifetime.start.p0(i64 1056, ptr %3) #4
  call void @llvm.lifetime.start.p0(i64 8, ptr %4) #4
  %8 = load ptr, ptr %2, align 8, !tbaa !4
  call void @checktab(ptr noundef %8, i32 noundef 1, i32 noundef 5)
  %9 = load ptr, ptr %2, align 8, !tbaa !4
  %10 = call i64 @luaL_len(ptr noundef %9, i32 noundef 1)
  store i64 %10, ptr %4, align 8, !tbaa !9
  call void @llvm.lifetime.start.p0(i64 8, ptr %5) #4
  call void @llvm.lifetime.start.p0(i64 8, ptr %6) #4
  %11 = load ptr, ptr %2, align 8, !tbaa !4
  %12 = call ptr @luaL_optlstring(ptr noundef %11, i32 noundef 2, ptr noundef @.str.8, ptr noundef %5)
  store ptr %12, ptr %6, align 8, !tbaa !11
  call void @llvm.lifetime.start.p0(i64 8, ptr %7) #4
  %13 = load ptr, ptr %2, align 8, !tbaa !4
  %14 = call i64 @luaL_optinteger(ptr noundef %13, i32 noundef 3, i64 noundef 1)
  store i64 %14, ptr %7, align 8, !tbaa !9
  %15 = load ptr, ptr %2, align 8, !tbaa !4
  %16 = load i64, ptr %4, align 8, !tbaa !9
  %17 = call i64 @luaL_optinteger(ptr noundef %15, i32 noundef 4, i64 noundef %16)
  store i64 %17, ptr %4, align 8, !tbaa !9
  %18 = load ptr, ptr %2, align 8, !tbaa !4
  call void @luaL_buffinit(ptr noundef %18, ptr noundef %3)
  br label %19

19:                                               ; preds = %28, %1
  %20 = load i64, ptr %7, align 8, !tbaa !9
  %21 = load i64, ptr %4, align 8, !tbaa !9
  %22 = icmp slt i64 %20, %21
  br i1 %22, label %23, label %31

23:                                               ; preds = %19
  %24 = load ptr, ptr %2, align 8, !tbaa !4
  %25 = load i64, ptr %7, align 8, !tbaa !9
  call void @addfield(ptr noundef %24, ptr noundef %3, i64 noundef %25)
  %26 = load ptr, ptr %6, align 8, !tbaa !11
  %27 = load i64, ptr %5, align 8, !tbaa !13
  call void @luaL_addlstring(ptr noundef %3, ptr noundef %26, i64 noundef %27)
  br label %28

28:                                               ; preds = %23
  %29 = load i64, ptr %7, align 8, !tbaa !9
  %30 = add nsw i64 %29, 1
  store i64 %30, ptr %7, align 8, !tbaa !9
  br label %19

31:                                               ; preds = %19
  %32 = load i64, ptr %7, align 8, !tbaa !9
  %33 = load i64, ptr %4, align 8, !tbaa !9
  %34 = icmp eq i64 %32, %33
  br i1 %34, label %35, label %38

35:                                               ; preds = %31
  %36 = load ptr, ptr %2, align 8, !tbaa !4
  %37 = load i64, ptr %7, align 8, !tbaa !9
  call void @addfield(ptr noundef %36, ptr noundef %3, i64 noundef %37)
  br label %38

38:                                               ; preds = %35, %31
  call void @luaL_pushresult(ptr noundef %3)
  call void @llvm.lifetime.end.p0(i64 8, ptr %7) #4
  call void @llvm.lifetime.end.p0(i64 8, ptr %6) #4
  call void @llvm.lifetime.end.p0(i64 8, ptr %5) #4
  call void @llvm.lifetime.end.p0(i64 8, ptr %4) #4
  call void @llvm.lifetime.end.p0(i64 1056, ptr %3) #4
  ret i32 1
}