; Function Attrs: nounwind uwtable
define internal noundef i32 @tconcat(ptr noundef %0) #0 {
  %2 = alloca %struct.luaL_Buffer, align 8
  %3 = alloca i64, align 8
  call void @llvm.lifetime.start.p0(i64 1056, ptr nonnull %2) #3
  tail call fastcc void @checktab(ptr noundef %0, i32 noundef 1, i32 noundef 5)
  %4 = tail call i64 @luaL_len(ptr noundef %0, i32 noundef 1) #3
  call void @llvm.lifetime.start.p0(i64 8, ptr nonnull %3) #3
  %5 = call ptr @luaL_optlstring(ptr noundef %0, i32 noundef 2, ptr noundef nonnull @.str.8, ptr noundef nonnull %3) #3
  %6 = call i64 @luaL_optinteger(ptr noundef %0, i32 noundef 3, i64 noundef 1) #3
  %7 = call i64 @luaL_optinteger(ptr noundef %0, i32 noundef 4, i64 noundef %4) #3
  call void @luaL_buffinit(ptr noundef %0, ptr noundef nonnull %2) #3
  %8 = icmp slt i64 %6, %7
  br i1 %8, label %.lr.ph, label %._crit_edge

.lr.ph:                                           ; preds = %1, %addfield.exit
  %.019 = phi i64 [ %16, %addfield.exit ], [ %6, %1 ]
  %9 = call i32 @lua_geti(ptr noundef %0, i32 noundef 1, i64 noundef %.019) #3
  %10 = call i32 @lua_isstring(ptr noundef %0, i32 noundef -1) #3
  %.not.i = icmp eq i32 %10, 0
  br i1 %.not.i, label %11, label %addfield.exit, !prof !4

11:                                               ; preds = %.lr.ph
  %12 = call i32 @lua_type(ptr noundef %0, i32 noundef -1) #3
  %13 = call ptr @lua_typename(ptr noundef %0, i32 noundef %12) #3
  %14 = call i32 (ptr, ptr, ...) @luaL_error(ptr noundef %0, ptr noundef nonnull @.str.12, ptr noundef %13, i64 noundef %.019) #3
  br label %addfield.exit

addfield.exit:                                    ; preds = %.lr.ph, %11
  call void @luaL_addvalue(ptr noundef nonnull %2) #3
  %15 = load i64, ptr %3, align 8, !tbaa !5
  call void @luaL_addlstring(ptr noundef nonnull %2, ptr noundef %5, i64 noundef %15) #3
  %16 = add i64 %.019, 1
  %exitcond.not = icmp eq i64 %16, %7
  br i1 %exitcond.not, label %._crit_edge.thread, label %.lr.ph

._crit_edge:                                      ; preds = %1
  %17 = icmp eq i64 %6, %7
  br i1 %17, label %._crit_edge.thread, label %24

._crit_edge.thread:                               ; preds = %addfield.exit, %._crit_edge
  %18 = call i32 @lua_geti(ptr noundef %0, i32 noundef 1, i64 noundef %7) #3
  %19 = call i32 @lua_isstring(ptr noundef %0, i32 noundef -1) #3
  %.not.i17 = icmp eq i32 %19, 0
  br i1 %.not.i17, label %20, label %addfield.exit18, !prof !4

20:                                               ; preds = %._crit_edge.thread
  %21 = call i32 @lua_type(ptr noundef %0, i32 noundef -1) #3
  %22 = call ptr @lua_typename(ptr noundef %0, i32 noundef %21) #3
  %23 = call i32 (ptr, ptr, ...) @luaL_error(ptr noundef %0, ptr noundef nonnull @.str.12, ptr noundef %22, i64 noundef %7) #3
  br label %addfield.exit18

addfield.exit18:                                  ; preds = %._crit_edge.thread, %20
  call void @luaL_addvalue(ptr noundef nonnull %2) #3
  br label %24

24:                                               ; preds = %addfield.exit18, %._crit_edge
  call void @luaL_pushresult(ptr noundef nonnull %2) #3
  call void @llvm.lifetime.end.p0(i64 8, ptr nonnull %3) #3
  call void @llvm.lifetime.end.p0(i64 1056, ptr nonnull %2) #3
  ret i32 1
}